target datalayout = "e-m:e-p270:32:32-p271:32:32-p272:64:64-i64:64-i128:128-f80:128-n8:16:32:64-S128"
target triple = "x86_64-pc-linux-gnu"

%struct.Gli_Obj_t_ = type { i32, i32, ptr, i32, %union.anon, %union.anon.0, [0 x i32] }
%union.anon = type { i32 }
%union.anon.0 = type { i32 }

; Function Attrs: inlinehint nounwind uwtable
define internal i32 @Abc_InfoHasBit(ptr noundef %0, i32 noundef %1) #3 {
  %3 = alloca ptr, align 8
  %4 = alloca i32, align 4
  store ptr %0, ptr %3, align 8, !tbaa !60
  store i32 %1, ptr %4, align 4, !tbaa !3
  %5 = load ptr, ptr %3, align 8, !tbaa !60
  %6 = load i32, ptr %4, align 4, !tbaa !3
  %7 = ashr i32 %6, 5
  %8 = sext i32 %7 to i64
  %9 = getelementptr inbounds i32, ptr %5, i64 %8
  %10 = load i32, ptr %9, align 4, !tbaa !3
  %11 = load i32, ptr %4, align 4, !tbaa !3
  %12 = and i32 %11, 31
  %13 = shl i32 1, %12
  %14 = and i32 %10, %13
  %15 = icmp ugt i32 %14, 0
  %16 = zext i1 %15 to i32
  ret i32 %16
}

; Function Attrs: inlinehint nounwind uwtable
define internal ptr @Gli_ObjFanin(ptr noundef %0, i32 noundef %1) #3 {
  %3 = alloca ptr, align 8
  %4 = alloca i32, align 4
  store ptr %0, ptr %3, align 8, !tbaa !27
  store i32 %1, ptr %4, align 4, !tbaa !3
  %5 = load ptr, ptr %3, align 8, !tbaa !27
  %6 = load ptr, ptr %3, align 8, !tbaa !27
  %7 = getelementptr inbounds nuw %struct.Gli_Obj_t_, ptr %6, i32 0, i32 6
  %8 = load i32, ptr %4, align 4, !tbaa !3
  %9 = sext i32 %8 to i64
  %10 = getelementptr inbounds [0 x i32], ptr %7, i64 0, i64 %9
  %11 = load i32, ptr %10, align 4, !tbaa !3
  %12 = sext i32 %11 to i64
  %13 = sub i64 0, %12
  %14 = getelementptr inbounds i32, ptr %5, i64 %13
  ret ptr %14
}

; Function Attrs: inlinehint nounwind uwtable
define internal i32 @Gli_ObjFaninNum(ptr noundef %0) #3 {
  %2 = alloca ptr, align 8
  store ptr %0, ptr %2, align 8, !tbaa !27
  %3 = load ptr, ptr %2, align 8, !tbaa !27
  %4 = load i32, ptr %3, align 8
  %5 = lshr i32 %4, 4
  %6 = and i32 %5, 7
  ret i32 %6
}

; Function Attrs: nounwind uwtable
define i32 @Gli_ManSimulateSeqNode(ptr noundef %0, ptr noundef %1) #0 {
  %3 = alloca ptr, align 8
  %4 = alloca ptr, align 8
  %5 = alloca [6 x i32], align 16
  %6 = alloca i32, align 4
  %7 = alloca i32, align 4
  %8 = alloca i32, align 4
  %9 = alloca i32, align 4
  %10 = alloca i32, align 4
  %11 = alloca ptr, align 8
  store ptr %0, ptr %3, align 8, !tbaa !7
  store ptr %1, ptr %4, align 8, !tbaa !27
  call void @llvm.lifetime.start.p0(i64 24, ptr %5) #10
  call void @llvm.lifetime.start.p0(i64 4, ptr %6) #10
  store i32 0, ptr %6, align 4, !tbaa !3
  call void @llvm.lifetime.start.p0(i64 4, ptr %7) #10
  %12 = load ptr, ptr %4, align 8, !tbaa !27
  %13 = call i32 @Gli_ObjFaninNum(ptr noundef %12)
  store i32 %13, ptr %7, align 4, !tbaa !3
  call void @llvm.lifetime.start.p0(i64 4, ptr %8) #10
  call void @llvm.lifetime.start.p0(i64 4, ptr %9) #10
  call void @llvm.lifetime.start.p0(i64 4, ptr %10) #10
  call void @llvm.lifetime.start.p0(i64 8, ptr %11) #10
  store i32 0, ptr %8, align 4, !tbaa !3
  br label %14

14:                                               ; preds = %35, %2
  %15 = load i32, ptr %8, align 4, !tbaa !3
  %16 = load ptr, ptr %4, align 8, !tbaa !27
  %17 = load i32, ptr %16, align 8
  %18 = lshr i32 %17, 4
  %19 = and i32 %18, 7
  %20 = icmp slt i32 %15, %19
  br i1 %20, label %21, label %26

21:                                               ; preds = %14
  %22 = load ptr, ptr %4, align 8, !tbaa !27
  %23 = load i32, ptr %8, align 4, !tbaa !3
  %24 = call ptr @Gli_ObjFanin(ptr noundef %22, i32 noundef %23)
  store ptr %24, ptr %11, align 8, !tbaa !27
  %25 = icmp ne ptr %24, null
  br label %26

26:                                               ; preds = %21, %14
  %27 = phi i1 [ false, %14 ], [ %25, %21 ]
  br i1 %27, label %28, label %38

28:                                               ; preds = %26
  %29 = load ptr, ptr %11, align 8, !tbaa !27
  %30 = getelementptr inbounds nuw %struct.Gli_Obj_t_, ptr %29, i32 0, i32 3
  %31 = load i32, ptr %30, align 8, !tbaa !47
  %32 = load i32, ptr %8, align 4, !tbaa !3
  %33 = sext i32 %32 to i64
  %34 = getelementptr inbounds [6 x i32], ptr %5, i64 0, i64 %33
  store i32 %31, ptr %34, align 4, !tbaa !3
  br label %35

35:                                               ; preds = %28
  %36 = load i32, ptr %8, align 4, !tbaa !3
  %37 = add nsw i32 %36, 1
  store i32 %37, ptr %8, align 4, !tbaa !3
  br label %14, !llvm.loop !57

38:                                               ; preds = %26
  store i32 0, ptr %8, align 4, !tbaa !3
  br label %39

39:                                               ; preds = %78, %38
  %40 = load i32, ptr %8, align 4, !tbaa !3
  %41 = icmp slt i32 %40, 32
  br i1 %41, label %42, label %81

42:                                               ; preds = %39
  store i32 0, ptr %10, align 4, !tbaa !3
  store i32 0, ptr %9, align 4, !tbaa !3
  br label %43

43:                                               ; preds = %62, %42
  %44 = load i32, ptr %9, align 4, !tbaa !3
  %45 = load i32, ptr %7, align 4, !tbaa !3
  %46 = icmp slt i32 %44, %45
  br i1 %46, label %47, label %65

47:                                               ; preds = %43
  %48 = load i32, ptr %9, align 4, !tbaa !3
  %49 = sext i32 %48 to i64
  %50 = getelementptr inbounds [6 x i32], ptr %5, i64 0, i64 %49
  %51 = load i32, ptr %50, align 4, !tbaa !3
  %52 = load i32, ptr %8, align 4, !tbaa !3
  %53 = lshr i32 %51, %52
  %54 = and i32 %53, 1
  %55 = icmp ne i32 %54, 0
  br i1 %55, label %56, label %61

56:                                               ; preds = %47
  %57 = load i32, ptr %9, align 4, !tbaa !3
  %58 = shl i32 1, %57
  %59 = load i32, ptr %10, align 4, !tbaa !3
  %60 = or i32 %59, %58
  store i32 %60, ptr %10, align 4, !tbaa !3
  br label %61

61:                                               ; preds = %56, %47
  br label %62

62:                                               ; preds = %61
  %63 = load i32, ptr %9, align 4, !tbaa !3
  %64 = add nsw i32 %63, 1
  store i32 %64, ptr %9, align 4, !tbaa !3
  br label %43, !llvm.loop !58

65:                                               ; preds = %43
  %66 = load ptr, ptr %4, align 8, !tbaa !27
  %67 = getelementptr inbounds nuw %struct.Gli_Obj_t_, ptr %66, i32 0, i32 2
  %68 = load ptr, ptr %67, align 8, !tbaa !42
  %69 = load i32, ptr %10, align 4, !tbaa !3
  %70 = call i32 @Abc_InfoHasBit(ptr noundef %68, i32 noundef %69)
  %71 = icmp ne i32 %70, 0
  br i1 %71, label %72, label %77

72:                                               ; preds = %65
  %73 = load i32, ptr %8, align 4, !tbaa !3
  %74 = shl i32 1, %73
  %75 = load i32, ptr %6, align 4, !tbaa !3
  %76 = or i32 %75, %74
  store i32 %76, ptr %6, align 4, !tbaa !3
  br label %77

77:                                               ; preds = %72, %65
  br label %78

78:                                               ; preds = %77
  %79 = load i32, ptr %8, align 4, !tbaa !3
  %80 = add nsw i32 %79, 1
  store i32 %80, ptr %8, align 4, !tbaa !3
  br label %39, !llvm.loop !59

81:                                               ; preds = %39
  %82 = load i32, ptr %6, align 4, !tbaa !3
  call void @llvm.lifetime.end.p0(i64 8, ptr %11) #10
  call void @llvm.lifetime.end.p0(i64 4, ptr %10) #10
  call void @llvm.lifetime.end.p0(i64 4, ptr %9) #10
  call void @llvm.lifetime.end.p0(i64 4, ptr %8) #10
  call void @llvm.lifetime.end.p0(i64 4, ptr %7) #10
  call void @llvm.lifetime.end.p0(i64 4, ptr %6) #10
  call void @llvm.lifetime.end.p0(i64 24, ptr %5) #10
  ret i32 %82
}