; Function Attrs: nofree norecurse nosync nounwind memory(read, inaccessiblemem: none) uwtable
define i32 @Gli_ManSimulateSeqNode(ptr noundef readnone captures(none) %0, ptr noundef readonly captures(none) %1) local_unnamed_addr #14 {
  %3 = alloca [6 x i32], align 16
  call void @llvm.lifetime.start.p0(i64 24, ptr nonnull %3) #24
  %.val = load i32, ptr %1, align 8
  %4 = lshr i32 %.val, 4
  %5 = and i32 %4, 7
  %invariant.gep = getelementptr i8, ptr %1, i64 16
  %.not = icmp eq i32 %5, 0
  br i1 %.not, label %.critedge.preheader.split, label %.lr.ph

.lr.ph:                                           ; preds = %2
  %6 = getelementptr inbounds nuw i8, ptr %1, i64 28
  %wide.trip.count = zext nneg i32 %5 to i64
  br label %30

.critedge.preheader:                              ; preds = %30
  %7 = getelementptr inbounds nuw i8, ptr %1, i64 8
  %8 = load ptr, ptr %7, align 8, !tbaa !36
  %wide.trip.count49 = zext nneg i32 %5 to i64
  br label %.preheader.us

.preheader.us:                                    ; preds = %.critedge.preheader, %._crit_edge.us
  %.034.us = phi i32 [ %.1.us, %._crit_edge.us ], [ 0, %.critedge.preheader ]
  %.12533.us = phi i32 [ %25, %._crit_edge.us ], [ 0, %.critedge.preheader ]
  %9 = shl nuw i32 1, %.12533.us
  br label %10

10:                                               ; preds = %.preheader.us, %10
  %indvars.iv46 = phi i64 [ 0, %.preheader.us ], [ %indvars.iv.next47, %10 ]
  %.02131.us = phi i32 [ 0, %.preheader.us ], [ %.122.us, %10 ]
  %11 = getelementptr inbounds nuw [6 x i32], ptr %3, i64 0, i64 %indvars.iv46
  %12 = load i32, ptr %11, align 4, !tbaa !26
  %13 = and i32 %12, %9
  %.not28.us = icmp eq i32 %13, 0
  %14 = trunc nuw nsw i64 %indvars.iv46 to i32
  %15 = shl nuw nsw i32 1, %14
  %16 = select i1 %.not28.us, i32 0, i32 %15
  %.122.us = or i32 %16, %.02131.us
  %indvars.iv.next47 = add nuw nsw i64 %indvars.iv46, 1
  %exitcond50.not = icmp eq i64 %indvars.iv.next47, %wide.trip.count49
  br i1 %exitcond50.not, label %._crit_edge.us, label %10, !llvm.loop !48

._crit_edge.us:                                   ; preds = %10
  %17 = ashr i32 %.122.us, 5
  %18 = sext i32 %17 to i64
  %19 = getelementptr inbounds i32, ptr %8, i64 %18
  %20 = load i32, ptr %19, align 4, !tbaa !26
  %21 = and i32 %.122.us, 31
  %22 = shl nuw i32 1, %21
  %23 = and i32 %20, %22
  %.not27.us = icmp eq i32 %23, 0
  %24 = select i1 %.not27.us, i32 0, i32 %9
  %.1.us = or i32 %24, %.034.us
  %25 = add nuw nsw i32 %.12533.us, 1
  %exitcond51.not = icmp eq i32 %25, 32
  br i1 %exitcond51.not, label %.split.us, label %.preheader.us, !llvm.loop !49

.critedge.preheader.split:                        ; preds = %2
  %26 = getelementptr inbounds nuw i8, ptr %1, i64 8
  %27 = load ptr, ptr %26, align 8, !tbaa !36
  %28 = load i32, ptr %27, align 4, !tbaa !26
  %.fr42 = freeze i32 %28
  %29 = and i32 %.fr42, 1
  %sext = sub nsw i32 0, %29
  br label %.split.us

30:                                               ; preds = %.lr.ph, %30
  %indvars.iv = phi i64 [ 0, %.lr.ph ], [ %indvars.iv.next, %30 ]
  %31 = getelementptr inbounds nuw [0 x i32], ptr %6, i64 0, i64 %indvars.iv
  %32 = load i32, ptr %31, align 4, !tbaa !26
  %33 = sext i32 %32 to i64
  %34 = sub nsw i64 0, %33
  %gep = getelementptr i32, ptr %invariant.gep, i64 %34
  %35 = load i32, ptr %gep, align 8, !tbaa !39
  %36 = getelementptr inbounds nuw [6 x i32], ptr %3, i64 0, i64 %indvars.iv
  store i32 %35, ptr %36, align 4, !tbaa !26
  %indvars.iv.next = add nuw nsw i64 %indvars.iv, 1
  %exitcond.not = icmp eq i64 %indvars.iv.next, %wide.trip.count
  br i1 %exitcond.not, label %.critedge.preheader, label %30, !llvm.loop !50

.split.us:                                        ; preds = %._crit_edge.us, %.critedge.preheader.split
  %.us-phi = phi i32 [ %sext, %.critedge.preheader.split ], [ %.1.us, %._crit_edge.us ]
  call void @llvm.lifetime.end.p0(i64 24, ptr nonnull %3) #24
  ret i32 %.us-phi
}